; Function Attrs: mustprogress uwtable
define dso_local void @_ZN4Luau7CodeGen3X6418AssemblyBuilderX648placeAvxEPKcNS1_10OperandX64ES5_hbhh(ptr noundef nonnull align 8 dereferenceable(252) %0, ptr noundef %1, i64 %2, i64 %3, i8 noundef zeroext %4, i1 noundef zeroext %5, i8 noundef zeroext %6, i8 noundef zeroext %7) local_unnamed_addr #0 align 2 {
  %9 = getelementptr inbounds nuw i8, ptr %0, i64 80
  %10 = load i8, ptr %9, align 8, !tbaa !14, !range !61, !noundef !62
  %11 = trunc nuw i8 %10 to i1
  br i1 %11, label %12, label %13

12:                                               ; preds = %8
  tail call void @_ZN4Luau7CodeGen3X6418AssemblyBuilderX643logEPKcNS1_10OperandX64ES5_(ptr noundef nonnull align 8 dereferenceable(252) %0, ptr noundef %1, i64 %2, i64 %3)
  br label %13

13:                                               ; preds = %12, %8
  %.sroa.17.0.extract.shift.i = lshr i64 %2, 16
  %.sroa.17.0.extract.trunc.i = trunc i64 %.sroa.17.0.extract.shift.i to i8
  %14 = getelementptr inbounds nuw i8, ptr %0, i64 232
  %15 = load ptr, ptr %14, align 8, !tbaa !51
  %16 = getelementptr inbounds nuw i8, ptr %15, i64 1
  store ptr %16, ptr %14, align 8, !tbaa !51
  store i8 -60, ptr %15, align 1, !tbaa !13
  %17 = shl i8 %.sroa.17.0.extract.trunc.i, 1
  %18 = and i8 %17, -128
  %19 = trunc i64 %3 to i32
  %20 = lshr i32 %19, 8
  %21 = and i32 %20, 64
  %22 = lshr i32 %19, 17
  %23 = and i32 %22, 32
  %24 = or disjoint i32 %23, %21
  %25 = trunc nuw nsw i32 %24 to i8
  %26 = or disjoint i8 %18, %25
  %27 = xor i8 %26, -32
  %28 = or i8 %27, %6
  %29 = load ptr, ptr %14, align 8, !tbaa !51
  %30 = getelementptr inbounds nuw i8, ptr %29, i64 1
  store ptr %30, ptr %14, align 8, !tbaa !51
  store i8 %28, ptr %29, align 1, !tbaa !13
  %31 = and i8 %.sroa.17.0.extract.trunc.i, 7
  %32 = icmp eq i8 %31, 6
  %33 = select i1 %32, i8 4, i8 0
  %34 = select i1 %5, i8 -8, i8 120
  %35 = or disjoint i8 %34, %33
  %36 = or i8 %35, %7
  %37 = load ptr, ptr %14, align 8, !tbaa !51
  %38 = getelementptr inbounds nuw i8, ptr %37, i64 1
  store ptr %38, ptr %14, align 8, !tbaa !51
  store i8 %36, ptr %37, align 1, !tbaa !13
  %39 = load ptr, ptr %14, align 8, !tbaa !51
  %40 = getelementptr inbounds nuw i8, ptr %39, i64 1
  store ptr %40, ptr %14, align 8, !tbaa !51
  store i8 %4, ptr %39, align 1, !tbaa !13
  %sum.shift.i = lshr i64 %2, 19
  %41 = trunc i64 %sum.shift.i to i8
  %42 = and i8 %41, 31
  tail call void @_ZN4Luau7CodeGen3X6418AssemblyBuilderX6414placeModRegMemENS1_10OperandX64Ehi(ptr noundef nonnull align 8 dereferenceable(252) %0, i64 %3, i8 noundef zeroext %42, i32 noundef 0)
  %43 = getelementptr inbounds nuw i8, ptr %0, i64 248
  %44 = load i32, ptr %43, align 8, !tbaa !63
  %45 = add i32 %44, 1
  store i32 %45, ptr %43, align 8, !tbaa !63
  %46 = getelementptr inbounds nuw i8, ptr %0, i64 240
  %47 = load ptr, ptr %46, align 8, !tbaa !52
  %48 = load ptr, ptr %14, align 8, !tbaa !51
  %49 = ptrtoint ptr %47 to i64
  %50 = ptrtoint ptr %48 to i64
  %51 = sub i64 %49, %50
  %52 = and i64 %51, 4294967280
  %53 = icmp eq i64 %52, 0
  br i1 %53, label %54, label %_ZN4Luau7CodeGen3X6418AssemblyBuilderX646commitEv.exit

54:                                               ; preds = %13
  tail call void @_ZN4Luau7CodeGen3X6418AssemblyBuilderX646extendEv(ptr noundef nonnull align 8 dereferenceable(252) %0)
  br label %_ZN4Luau7CodeGen3X6418AssemblyBuilderX646commitEv.exit

_ZN4Luau7CodeGen3X6418AssemblyBuilderX646commitEv.exit: ; preds = %13, %54
  ret void
}